; Function Attrs: mustprogress nounwind uwtable
define hidden void @_ZN23G1ParScanThreadStateSet29record_unused_optional_regionEP12G1HeapRegion(ptr nocapture noundef nonnull readonly align 8 dereferenceable(480) %0, ptr nocapture noundef readonly %1) local_unnamed_addr #0 align 2 {
  %3 = getelementptr inbounds i8, ptr %0, i64 464
  %4 = load i32, ptr %3, align 8
  %.not = icmp eq i32 %4, 0
  br i1 %.not, label %._crit_edge, label %.lr.ph

.lr.ph:                                           ; preds = %2
  %5 = getelementptr inbounds i8, ptr %0, i64 440
  %6 = getelementptr inbounds i8, ptr %1, i64 64
  br label %7

7:                                                ; preds = %.lr.ph, %7
  %indvars.iv = phi i64 [ 0, %.lr.ph ], [ %indvars.iv.next, %7 ]
  %8 = load ptr, ptr %5, align 8
  %9 = getelementptr inbounds ptr, ptr %8, i64 %indvars.iv
  %10 = load ptr, ptr %9, align 8
  %11 = getelementptr inbounds i8, ptr %10, i64 544
  %12 = load ptr, ptr %11, align 8
  %13 = load i32, ptr %6, align 8
  %14 = zext i32 %13 to i64
  %15 = getelementptr inbounds %class.G1OopStarChunkedList, ptr %12, i64 %14
  %16 = load i64, ptr %15, align 8
  %17 = load ptr, ptr %0, align 8
  %18 = getelementptr inbounds i8, ptr %17, i64 1064
  %19 = load ptr, ptr %18, align 8
  %20 = tail call noundef ptr @_ZNK8G1Policy11phase_timesEv(ptr noundef nonnull align 8 dereferenceable(552) %19) #13
  %21 = trunc nuw i64 %indvars.iv to i32
  tail call void @_ZN14G1GCPhaseTimes30record_or_add_thread_work_itemENS_11GCParPhasesEjmj(ptr noundef nonnull align 8 dereferenceable(872) %20, i32 noundef 17, i32 noundef %21, i64 noundef %16, i32 noundef 5) #13
  %indvars.iv.next = add nuw nsw i64 %indvars.iv, 1
  %22 = load i32, ptr %3, align 8
  %23 = zext i32 %22 to i64
  %24 = icmp ult i64 %indvars.iv.next, %23
  br i1 %24, label %7, label %._crit_edge, !llvm.loop !18

._crit_edge:                                      ; preds = %7, %2
  ret void
}